target datalayout = "e-m:e-p270:32:32-p271:32:32-p272:64:64-i64:64-i128:128-f80:128-n8:16:32:64-S128"
target triple = "x86_64-pc-linux-gnu"

%struct.PJ_LIST = type { ptr, ptr, ptr }

; Function Attrs: mustprogress uwtable
define internal noundef ptr @_ZL18locate_constructorPKc(ptr noundef %0) #0 {
  %2 = alloca ptr, align 8
  %3 = alloca ptr, align 8
  %4 = alloca i32, align 4
  %5 = alloca ptr, align 8
  %6 = alloca ptr, align 8
  store ptr %0, ptr %3, align 8
  %7 = call ptr @proj_list_operations()
  store ptr %7, ptr %6, align 8
  store i32 0, ptr %4, align 4
  br label %8

8:                                                ; preds = %24, %1
  %9 = load ptr, ptr %6, align 8
  %10 = load i32, ptr %4, align 4
  %11 = sext i32 %10 to i64
  %12 = getelementptr inbounds %struct.PJ_LIST, ptr %9, i64 %11
  %13 = getelementptr inbounds %struct.PJ_LIST, ptr %12, i32 0, i32 0
  %14 = load ptr, ptr %13, align 8
  store ptr %14, ptr %5, align 8
  %15 = icmp ne ptr %14, null
  br i1 %15, label %16, label %21

16:                                               ; preds = %8
  %17 = load ptr, ptr %3, align 8
  %18 = load ptr, ptr %5, align 8
  %19 = call i32 @strcmp(ptr noundef %17, ptr noundef %18) #10
  %20 = icmp ne i32 %19, 0
  br label %21

21:                                               ; preds = %16, %8
  %22 = phi i1 [ false, %8 ], [ %20, %16 ]
  br i1 %22, label %23, label %27

23:                                               ; preds = %21
  br label %24

24:                                               ; preds = %23
  %25 = load i32, ptr %4, align 4
  %26 = add nsw i32 %25, 1
  store i32 %26, ptr %4, align 4
  br label %8, !llvm.loop !11

27:                                               ; preds = %21
  %28 = load ptr, ptr %5, align 8
  %29 = icmp eq ptr null, %28
  br i1 %29, label %30, label %31

30:                                               ; preds = %27
  store ptr null, ptr %2, align 8
  br label %38

31:                                               ; preds = %27
  %32 = load ptr, ptr %6, align 8
  %33 = load i32, ptr %4, align 4
  %34 = sext i32 %33 to i64
  %35 = getelementptr inbounds %struct.PJ_LIST, ptr %32, i64 %34
  %36 = getelementptr inbounds %struct.PJ_LIST, ptr %35, i32 0, i32 1
  %37 = load ptr, ptr %36, align 8
  store ptr %37, ptr %2, align 8
  br label %38

38:                                               ; preds = %31, %30
  %39 = load ptr, ptr %2, align 8
  ret ptr %39
}