; Function Attrs: mustprogress uwtable
define internal fastcc noundef ptr @_ZL18locate_constructorPKc(ptr nocapture noundef readonly %0) unnamed_addr #0 {
  %2 = tail call ptr @proj_list_operations()
  %3 = load ptr, ptr %2, align 8
  %cond12 = icmp eq ptr %3, null
  br i1 %cond12, label %.loopexit, label %.lr.ph

4:                                                ; preds = %.lr.ph
  %indvars.iv.next = add nuw nsw i64 %indvars.iv, 1
  %5 = getelementptr inbounds %struct.PJ_LIST, ptr %2, i64 %indvars.iv.next
  %6 = load ptr, ptr %5, align 8
  %cond = icmp eq ptr %6, null
  br i1 %cond, label %.loopexit, label %.lr.ph, !llvm.loop !14

.lr.ph:                                           ; preds = %1, %4
  %indvars.iv = phi i64 [ %indvars.iv.next, %4 ], [ 0, %1 ]
  %7 = phi ptr [ %6, %4 ], [ %3, %1 ]
  %8 = tail call i32 @strcmp(ptr noundef nonnull dereferenceable(1) %0, ptr noundef nonnull dereferenceable(1) %7) #13
  %.not10 = icmp eq i32 %8, 0
  br i1 %.not10, label %.critedge, label %4

.critedge:                                        ; preds = %.lr.ph
  %9 = getelementptr inbounds %struct.PJ_LIST, ptr %2, i64 %indvars.iv, i32 1
  %10 = load ptr, ptr %9, align 8
  br label %.loopexit

.loopexit:                                        ; preds = %4, %1, %.critedge
  %.0 = phi ptr [ %10, %.critedge ], [ null, %1 ], [ null, %4 ]
  ret ptr %.0
}